; Function Attrs: mustprogress uwtable
define noundef double @_ZNK8QuantLib10GsrProcess11expectationEddd(ptr noundef nonnull align 8 dereferenceable(536) %this, double noundef %w, double noundef %xw, double noundef %dt) unnamed_addr #6 align 2 {
entry:
  %add = fadd double %w, %dt
  tail call void @_ZNK8QuantLib10GsrProcess6checkTEd(ptr noundef nonnull align 8 dereferenceable(536) %this, double noundef %add)
  %core_ = getelementptr inbounds nuw i8, ptr %this, i64 152
  %call = tail call noundef double @_ZNK8QuantLib6detail14GsrProcessCore22expectation_x0dep_partEddd(ptr noundef nonnull align 8 dereferenceable(360) %core_, double noundef %w, double noundef %xw, double noundef %dt)
  %call3 = tail call noundef double @_ZNK8QuantLib6detail14GsrProcessCore19expectation_rn_partEdd(ptr noundef nonnull align 8 dereferenceable(360) %core_, double noundef %w, double noundef %dt)
  %add4 = fadd double %call, %call3
  %call6 = tail call noundef double @_ZNK8QuantLib6detail14GsrProcessCore19expectation_tf_partEdd(ptr noundef nonnull align 8 dereferenceable(360) %core_, double noundef %w, double noundef %dt)
  %add7 = fadd double %add4, %call6
  ret double %add7
}